target datalayout = "e-m:e-p270:32:32-p271:32:32-p272:64:64-i64:64-i128:128-f80:128-n8:16:32:64-S128"
target triple = "x86_64-pc-linux-gnu"

%struct.DdNode = type { i32, i32, ptr, %union.anon, i64 }
%union.anon = type { %struct.DdChildren }
%struct.DdChildren = type { ptr, ptr }
%struct.DdManager = type { %struct.DdNode, ptr, ptr, ptr, ptr, ptr, ptr, ptr, i32, i32, double, double, double, i32, i32, i32, i32, i32, i32, ptr, ptr, %struct.DdSubtable, i32, i32, i32, i32, i32, i32, i32, double, i32, i32, i32, ptr, i64, double, i32, ptr, ptr, ptr, ptr, ptr, ptr, ptr, i32, ptr, ptr, ptr, ptr, ptr, ptr, i32, i32, i32, double, i32, i32, i32, i32, double, double, i32, i32, i32, i32, i32, i32, i32, i32, i32, ptr, ptr, i32, i32, i32, i32, i32, i32, ptr, ptr, ptr, ptr, ptr, ptr, ptr, ptr, i32, i64, i64, i64, i32, i64, i64, double, double, double, double, double, double, i32, ptr, ptr, i64 }
%struct.DdSubtable = type { ptr, i32, i32, i32, i32, i32, i32, i32, i32, i32, i32, i32 }

; Function Attrs: nounwind uwtable
define i32 @Cudd_bddApproxConjDecomp(ptr noundef %0, ptr noundef %1, ptr noundef %2) #0 {
  %4 = alloca i32, align 4
  %5 = alloca ptr, align 8
  %6 = alloca ptr, align 8
  %7 = alloca ptr, align 8
  %8 = alloca ptr, align 8
  %9 = alloca ptr, align 8
  %10 = alloca ptr, align 8
  %11 = alloca ptr, align 8
  %12 = alloca i32, align 4
  %13 = alloca i32, align 4
  store ptr %0, ptr %5, align 8, !tbaa !3
  store ptr %1, ptr %6, align 8, !tbaa !8
  store ptr %2, ptr %7, align 8, !tbaa !10
  call void @llvm.lifetime.start.p0(i64 8, ptr %8) #5
  call void @llvm.lifetime.start.p0(i64 8, ptr %9) #5
  call void @llvm.lifetime.start.p0(i64 8, ptr %10) #5
  call void @llvm.lifetime.start.p0(i64 8, ptr %11) #5
  call void @llvm.lifetime.start.p0(i64 4, ptr %12) #5
  %14 = load ptr, ptr %5, align 8, !tbaa !3
  %15 = load ptr, ptr %6, align 8, !tbaa !8
  %16 = call i32 @Cudd_SupportSize(ptr noundef %14, ptr noundef %15)
  store i32 %16, ptr %12, align 4, !tbaa !12
  %17 = load ptr, ptr %5, align 8, !tbaa !3
  %18 = load ptr, ptr %6, align 8, !tbaa !8
  %19 = load i32, ptr %12, align 4, !tbaa !12
  %20 = call ptr @Cudd_RemapOverApprox(ptr noundef %17, ptr noundef %18, i32 noundef %19, i32 noundef 0, double noundef 1.000000e+00)
  store ptr %20, ptr %8, align 8, !tbaa !8
  %21 = load ptr, ptr %8, align 8, !tbaa !8
  %22 = icmp eq ptr %21, null
  br i1 %22, label %23, label %24

23:                                               ; preds = %3
  store i32 0, ptr %4, align 4
  store i32 1, ptr %13, align 4
  br label %158

24:                                               ; preds = %3
  %25 = load ptr, ptr %8, align 8, !tbaa !8
  %26 = ptrtoint ptr %25 to i64
  %27 = and i64 %26, -2
  %28 = inttoptr i64 %27 to ptr
  %29 = getelementptr inbounds nuw %struct.DdNode, ptr %28, i32 0, i32 1
  %30 = load i32, ptr %29, align 4, !tbaa !14
  %31 = add i32 %30, 1
  store i32 %31, ptr %29, align 4, !tbaa !14
  %32 = load ptr, ptr %5, align 8, !tbaa !3
  %33 = load ptr, ptr %6, align 8, !tbaa !8
  %34 = load ptr, ptr %8, align 8, !tbaa !8
  %35 = call ptr @Cudd_bddSqueeze(ptr noundef %32, ptr noundef %33, ptr noundef %34)
  store ptr %35, ptr %9, align 8, !tbaa !8
  %36 = load ptr, ptr %9, align 8, !tbaa !8
  %37 = icmp eq ptr %36, null
  br i1 %37, label %38, label %41

38:                                               ; preds = %24
  %39 = load ptr, ptr %5, align 8, !tbaa !3
  %40 = load ptr, ptr %8, align 8, !tbaa !8
  call void @Cudd_RecursiveDeref(ptr noundef %39, ptr noundef %40)
  store i32 0, ptr %4, align 4
  store i32 1, ptr %13, align 4
  br label %158

41:                                               ; preds = %24
  %42 = load ptr, ptr %9, align 8, !tbaa !8
  %43 = ptrtoint ptr %42 to i64
  %44 = and i64 %43, -2
  %45 = inttoptr i64 %44 to ptr
  %46 = getelementptr inbounds nuw %struct.DdNode, ptr %45, i32 0, i32 1
  %47 = load i32, ptr %46, align 4, !tbaa !14
  %48 = add i32 %47, 1
  store i32 %48, ptr %46, align 4, !tbaa !14
  %49 = load ptr, ptr %5, align 8, !tbaa !3
  %50 = load ptr, ptr %8, align 8, !tbaa !8
  call void @Cudd_RecursiveDeref(ptr noundef %49, ptr noundef %50)
  %51 = load ptr, ptr %5, align 8, !tbaa !3
  %52 = load ptr, ptr %6, align 8, !tbaa !8
  %53 = load ptr, ptr %9, align 8, !tbaa !8
  %54 = call ptr @Cudd_bddLICompaction(ptr noundef %51, ptr noundef %52, ptr noundef %53)
  store ptr %54, ptr %11, align 8, !tbaa !8
  %55 = load ptr, ptr %11, align 8, !tbaa !8
  %56 = icmp eq ptr %55, null
  br i1 %56, label %57, label %60

57:                                               ; preds = %41
  %58 = load ptr, ptr %5, align 8, !tbaa !3
  %59 = load ptr, ptr %9, align 8, !tbaa !8
  call void @Cudd_RecursiveDeref(ptr noundef %58, ptr noundef %59)
  store i32 0, ptr %4, align 4
  store i32 1, ptr %13, align 4
  br label %158

60:                                               ; preds = %41
  %61 = load ptr, ptr %11, align 8, !tbaa !8
  %62 = ptrtoint ptr %61 to i64
  %63 = and i64 %62, -2
  %64 = inttoptr i64 %63 to ptr
  %65 = getelementptr inbounds nuw %struct.DdNode, ptr %64, i32 0, i32 1
  %66 = load i32, ptr %65, align 4, !tbaa !14
  %67 = add i32 %66, 1
  store i32 %67, ptr %65, align 4, !tbaa !14
  %68 = load ptr, ptr %5, align 8, !tbaa !3
  %69 = load ptr, ptr %9, align 8, !tbaa !8
  %70 = load ptr, ptr %11, align 8, !tbaa !8
  %71 = call ptr @Cudd_bddLICompaction(ptr noundef %68, ptr noundef %69, ptr noundef %70)
  store ptr %71, ptr %10, align 8, !tbaa !8
  %72 = load ptr, ptr %10, align 8, !tbaa !8
  %73 = icmp eq ptr %72, null
  br i1 %73, label %74, label %79

74:                                               ; preds = %60
  %75 = load ptr, ptr %5, align 8, !tbaa !3
  %76 = load ptr, ptr %9, align 8, !tbaa !8
  call void @Cudd_RecursiveDeref(ptr noundef %75, ptr noundef %76)
  %77 = load ptr, ptr %5, align 8, !tbaa !3
  %78 = load ptr, ptr %11, align 8, !tbaa !8
  call void @Cudd_RecursiveDeref(ptr noundef %77, ptr noundef %78)
  store i32 0, ptr %4, align 4
  store i32 1, ptr %13, align 4
  br label %158

79:                                               ; preds = %60
  %80 = load ptr, ptr %10, align 8, !tbaa !8
  %81 = ptrtoint ptr %80 to i64
  %82 = and i64 %81, -2
  %83 = inttoptr i64 %82 to ptr
  %84 = getelementptr inbounds nuw %struct.DdNode, ptr %83, i32 0, i32 1
  %85 = load i32, ptr %84, align 4, !tbaa !14
  %86 = add i32 %85, 1
  store i32 %86, ptr %84, align 4, !tbaa !14
  %87 = load ptr, ptr %5, align 8, !tbaa !3
  %88 = load ptr, ptr %9, align 8, !tbaa !8
  call void @Cudd_RecursiveDeref(ptr noundef %87, ptr noundef %88)
  %89 = load ptr, ptr %10, align 8, !tbaa !8
  %90 = load ptr, ptr %5, align 8, !tbaa !3
  %91 = getelementptr inbounds nuw %struct.DdManager, ptr %90, i32 0, i32 1
  %92 = load ptr, ptr %91, align 8, !tbaa !17
  %93 = icmp ne ptr %89, %92
  br i1 %93, label %94, label %140

94:                                               ; preds = %79
  %95 = load ptr, ptr %11, align 8, !tbaa !8
  %96 = load ptr, ptr %5, align 8, !tbaa !3
  %97 = getelementptr inbounds nuw %struct.DdManager, ptr %96, i32 0, i32 1
  %98 = load ptr, ptr %97, align 8, !tbaa !17
  %99 = icmp ne ptr %95, %98
  br i1 %99, label %100, label %122

100:                                              ; preds = %94
  %101 = call noalias ptr @malloc(i64 noundef 16) #6
  %102 = load ptr, ptr %7, align 8, !tbaa !10
  store ptr %101, ptr %102, align 8, !tbaa !31
  %103 = load ptr, ptr %7, align 8, !tbaa !10
  %104 = load ptr, ptr %103, align 8, !tbaa !31
  %105 = icmp eq ptr %104, null
  br i1 %105, label %106, label %113

106:                                              ; preds = %100
  %107 = load ptr, ptr %5, align 8, !tbaa !3
  %108 = load ptr, ptr %10, align 8, !tbaa !8
  call void @Cudd_RecursiveDeref(ptr noundef %107, ptr noundef %108)
  %109 = load ptr, ptr %5, align 8, !tbaa !3
  %110 = load ptr, ptr %11, align 8, !tbaa !8
  call void @Cudd_RecursiveDeref(ptr noundef %109, ptr noundef %110)
  %111 = load ptr, ptr %5, align 8, !tbaa !3
  %112 = getelementptr inbounds nuw %struct.DdManager, ptr %111, i32 0, i32 86
  store i32 1, ptr %112, align 8, !tbaa !32
  store i32 0, ptr %4, align 4
  store i32 1, ptr %13, align 4
  br label %158

113:                                              ; preds = %100
  %114 = load ptr, ptr %10, align 8, !tbaa !8
  %115 = load ptr, ptr %7, align 8, !tbaa !10
  %116 = load ptr, ptr %115, align 8, !tbaa !31
  %117 = getelementptr inbounds ptr, ptr %116, i64 0
  store ptr %114, ptr %117, align 8, !tbaa !8
  %118 = load ptr, ptr %11, align 8, !tbaa !8
  %119 = load ptr, ptr %7, align 8, !tbaa !10
  %120 = load ptr, ptr %119, align 8, !tbaa !31
  %121 = getelementptr inbounds ptr, ptr %120, i64 1
  store ptr %118, ptr %121, align 8, !tbaa !8
  store i32 2, ptr %4, align 4
  store i32 1, ptr %13, align 4
  br label %158

122:                                              ; preds = %94
  %123 = load ptr, ptr %5, align 8, !tbaa !3
  %124 = load ptr, ptr %11, align 8, !tbaa !8
  call void @Cudd_RecursiveDeref(ptr noundef %123, ptr noundef %124)
  %125 = call noalias ptr @malloc(i64 noundef 8) #6
  %126 = load ptr, ptr %7, align 8, !tbaa !10
  store ptr %125, ptr %126, align 8, !tbaa !31
  %127 = load ptr, ptr %7, align 8, !tbaa !10
  %128 = load ptr, ptr %127, align 8, !tbaa !31
  %129 = icmp eq ptr %128, null
  br i1 %129, label %130, label %135

130:                                              ; preds = %122
  %131 = load ptr, ptr %5, align 8, !tbaa !3
  %132 = load ptr, ptr %10, align 8, !tbaa !8
  call void @Cudd_RecursiveDeref(ptr noundef %131, ptr noundef %132)
  %133 = load ptr, ptr %5, align 8, !tbaa !3
  %134 = getelementptr inbounds nuw %struct.DdManager, ptr %133, i32 0, i32 86
  store i32 1, ptr %134, align 8, !tbaa !32
  store i32 0, ptr %4, align 4
  store i32 1, ptr %13, align 4
  br label %158

135:                                              ; preds = %122
  %136 = load ptr, ptr %10, align 8, !tbaa !8
  %137 = load ptr, ptr %7, align 8, !tbaa !10
  %138 = load ptr, ptr %137, align 8, !tbaa !31
  %139 = getelementptr inbounds ptr, ptr %138, i64 0
  store ptr %136, ptr %139, align 8, !tbaa !8
  store i32 1, ptr %4, align 4
  store i32 1, ptr %13, align 4
  br label %158

140:                                              ; preds = %79
  %141 = load ptr, ptr %5, align 8, !tbaa !3
  %142 = load ptr, ptr %10, align 8, !tbaa !8
  call void @Cudd_RecursiveDeref(ptr noundef %141, ptr noundef %142)
  %143 = call noalias ptr @malloc(i64 noundef 8) #6
  %144 = load ptr, ptr %7, align 8, !tbaa !10
  store ptr %143, ptr %144, align 8, !tbaa !31
  %145 = load ptr, ptr %7, align 8, !tbaa !10
  %146 = load ptr, ptr %145, align 8, !tbaa !31
  %147 = icmp eq ptr %146, null
  br i1 %147, label %148, label %153

148:                                              ; preds = %140
  %149 = load ptr, ptr %5, align 8, !tbaa !3
  %150 = load ptr, ptr %11, align 8, !tbaa !8
  call void @Cudd_RecursiveDeref(ptr noundef %149, ptr noundef %150)
  %151 = load ptr, ptr %5, align 8, !tbaa !3
  %152 = getelementptr inbounds nuw %struct.DdManager, ptr %151, i32 0, i32 86
  store i32 1, ptr %152, align 8, !tbaa !32
  store i32 0, ptr %4, align 4
  store i32 1, ptr %13, align 4
  br label %158

153:                                              ; preds = %140
  %154 = load ptr, ptr %11, align 8, !tbaa !8
  %155 = load ptr, ptr %7, align 8, !tbaa !10
  %156 = load ptr, ptr %155, align 8, !tbaa !31
  %157 = getelementptr inbounds ptr, ptr %156, i64 0
  store ptr %154, ptr %157, align 8, !tbaa !8
  store i32 1, ptr %4, align 4
  store i32 1, ptr %13, align 4
  br label %158

158:                                              ; preds = %153, %148, %135, %130, %113, %106, %74, %57, %38, %23
  call void @llvm.lifetime.end.p0(i64 4, ptr %12) #5
  call void @llvm.lifetime.end.p0(i64 8, ptr %11) #5
  call void @llvm.lifetime.end.p0(i64 8, ptr %10) #5
  call void @llvm.lifetime.end.p0(i64 8, ptr %9) #5
  call void @llvm.lifetime.end.p0(i64 8, ptr %8) #5
  %159 = load i32, ptr %4, align 4
  ret i32 %159
}