; Function Attrs: nounwind uwtable
define range(i32 0, 3) i32 @Cudd_bddApproxConjDecomp(ptr noundef %0, ptr noundef %1, ptr noundef writeonly captures(none) %2) local_unnamed_addr #0 {
  %4 = tail call i32 @Cudd_SupportSize(ptr noundef %0, ptr noundef %1) #8
  %5 = tail call ptr @Cudd_RemapOverApprox(ptr noundef %0, ptr noundef %1, i32 noundef %4, i32 noundef 0, double noundef 1.000000e+00) #8
  %6 = icmp eq ptr %5, null
  br i1 %6, label %66, label %7

7:                                                ; preds = %3
  %8 = ptrtoint ptr %5 to i64
  %9 = and i64 %8, -2
  %10 = inttoptr i64 %9 to ptr
  %11 = getelementptr inbounds nuw i8, ptr %10, i64 4
  %12 = load i32, ptr %11, align 4, !tbaa !3
  %13 = add i32 %12, 1
  store i32 %13, ptr %11, align 4, !tbaa !3
  %14 = tail call ptr @Cudd_bddSqueeze(ptr noundef %0, ptr noundef %1, ptr noundef nonnull %5) #8
  %15 = icmp eq ptr %14, null
  br i1 %15, label %16, label %17

16:                                               ; preds = %7
  tail call void @Cudd_RecursiveDeref(ptr noundef %0, ptr noundef nonnull %5) #8
  br label %66

17:                                               ; preds = %7
  %18 = ptrtoint ptr %14 to i64
  %19 = and i64 %18, -2
  %20 = inttoptr i64 %19 to ptr
  %21 = getelementptr inbounds nuw i8, ptr %20, i64 4
  %22 = load i32, ptr %21, align 4, !tbaa !3
  %23 = add i32 %22, 1
  store i32 %23, ptr %21, align 4, !tbaa !3
  tail call void @Cudd_RecursiveDeref(ptr noundef %0, ptr noundef nonnull %5) #8
  %24 = tail call ptr @Cudd_bddLICompaction(ptr noundef %0, ptr noundef %1, ptr noundef nonnull %14) #8
  %25 = icmp eq ptr %24, null
  br i1 %25, label %26, label %27

26:                                               ; preds = %17
  tail call void @Cudd_RecursiveDeref(ptr noundef %0, ptr noundef nonnull %14) #8
  br label %66

27:                                               ; preds = %17
  %28 = ptrtoint ptr %24 to i64
  %29 = and i64 %28, -2
  %30 = inttoptr i64 %29 to ptr
  %31 = getelementptr inbounds nuw i8, ptr %30, i64 4
  %32 = load i32, ptr %31, align 4, !tbaa !3
  %33 = add i32 %32, 1
  store i32 %33, ptr %31, align 4, !tbaa !3
  %34 = tail call ptr @Cudd_bddLICompaction(ptr noundef %0, ptr noundef nonnull %14, ptr noundef nonnull %24) #8
  %35 = icmp eq ptr %34, null
  br i1 %35, label %36, label %37

36:                                               ; preds = %27
  tail call void @Cudd_RecursiveDeref(ptr noundef %0, ptr noundef nonnull %14) #8
  tail call void @Cudd_RecursiveDeref(ptr noundef %0, ptr noundef nonnull %24) #8
  br label %66

37:                                               ; preds = %27
  %38 = ptrtoint ptr %34 to i64
  %39 = and i64 %38, -2
  %40 = inttoptr i64 %39 to ptr
  %41 = getelementptr inbounds nuw i8, ptr %40, i64 4
  %42 = load i32, ptr %41, align 4, !tbaa !3
  %43 = add i32 %42, 1
  store i32 %43, ptr %41, align 4, !tbaa !3
  tail call void @Cudd_RecursiveDeref(ptr noundef %0, ptr noundef nonnull %14) #8
  %44 = getelementptr inbounds nuw i8, ptr %0, i64 40
  %45 = load ptr, ptr %44, align 8, !tbaa !11
  %.not = icmp eq ptr %34, %45
  br i1 %.not, label %60, label %46

46:                                               ; preds = %37
  %.not75 = icmp eq ptr %24, %45
  br i1 %.not75, label %54, label %47

47:                                               ; preds = %46
  %48 = tail call noalias dereferenceable_or_null(16) ptr @malloc(i64 noundef 16) #9
  store ptr %48, ptr %2, align 8, !tbaa !25
  %49 = icmp eq ptr %48, null
  br i1 %49, label %50, label %52

50:                                               ; preds = %47
  tail call void @Cudd_RecursiveDeref(ptr noundef nonnull %0, ptr noundef nonnull %34) #8
  tail call void @Cudd_RecursiveDeref(ptr noundef nonnull %0, ptr noundef nonnull %24) #8
  %51 = getelementptr inbounds nuw i8, ptr %0, i64 624
  store i32 1, ptr %51, align 8, !tbaa !26
  br label %66

52:                                               ; preds = %47
  store ptr %34, ptr %48, align 8, !tbaa !27
  %53 = getelementptr inbounds nuw i8, ptr %48, i64 8
  store ptr %24, ptr %53, align 8, !tbaa !27
  br label %66

54:                                               ; preds = %46
  tail call void @Cudd_RecursiveDeref(ptr noundef nonnull %0, ptr noundef nonnull %24) #8
  %55 = tail call noalias dereferenceable_or_null(8) ptr @malloc(i64 noundef 8) #9
  store ptr %55, ptr %2, align 8, !tbaa !25
  %56 = icmp eq ptr %55, null
  br i1 %56, label %57, label %59

57:                                               ; preds = %54
  tail call void @Cudd_RecursiveDeref(ptr noundef nonnull %0, ptr noundef nonnull %34) #8
  %58 = getelementptr inbounds nuw i8, ptr %0, i64 624
  store i32 1, ptr %58, align 8, !tbaa !26
  br label %66

59:                                               ; preds = %54
  store ptr %34, ptr %55, align 8, !tbaa !27
  br label %66

60:                                               ; preds = %37
  tail call void @Cudd_RecursiveDeref(ptr noundef nonnull %0, ptr noundef nonnull %34) #8
  %61 = tail call noalias dereferenceable_or_null(8) ptr @malloc(i64 noundef 8) #9
  store ptr %61, ptr %2, align 8, !tbaa !25
  %62 = icmp eq ptr %61, null
  br i1 %62, label %63, label %65

63:                                               ; preds = %60
  tail call void @Cudd_RecursiveDeref(ptr noundef nonnull %0, ptr noundef nonnull %24) #8
  %64 = getelementptr inbounds nuw i8, ptr %0, i64 624
  store i32 1, ptr %64, align 8, !tbaa !26
  br label %66

65:                                               ; preds = %60
  store ptr %24, ptr %61, align 8, !tbaa !27
  br label %66

66:                                               ; preds = %3, %65, %63, %59, %57, %52, %50, %36, %26, %16
  %.0 = phi i32 [ 0, %16 ], [ 0, %26 ], [ 0, %36 ], [ 0, %50 ], [ 2, %52 ], [ 0, %57 ], [ 1, %59 ], [ 0, %63 ], [ 1, %65 ], [ 0, %3 ]
  ret i32 %.0
}